target datalayout = "e-m:e-p270:32:32-p271:32:32-p272:64:64-i64:64-i128:128-f80:128-n8:16:32:64-S128"
target triple = "x86_64-pc-linux-gnu"

%struct._GdkRGBA = type { double, double, double, double }
%struct.darktable_t = type { %struct.dt_codepath_t, i32, i32, ptr, ptr, ptr, ptr, ptr, ptr, ptr, ptr, ptr, ptr, ptr, ptr, ptr, ptr, ptr, ptr, ptr, ptr, ptr, ptr, ptr, ptr, ptr, ptr, ptr, ptr, ptr, [64 x %struct.dt_pthread_mutex_t], %struct.dt_pthread_mutex_t, %struct.dt_pthread_mutex_t, %struct.dt_pthread_mutex_t, %struct.dt_pthread_mutex_t, %struct.dt_pthread_mutex_t, ptr, ptr, ptr, ptr, ptr, ptr, ptr, ptr, ptr, ptr, ptr, ptr, ptr, %struct.dt_lua_state_t, ptr, double, ptr, i32, [47 x i32], i32, i32, ptr, ptr, %struct.dt_sys_resources_t, %struct.dt_backthumb_t, %struct.dt_gimp_t }
%struct.dt_codepath_t = type { i8, [3 x i8] }
%struct.dt_pthread_mutex_t = type { %union.pthread_mutex_t }
%union.pthread_mutex_t = type { %struct.__pthread_mutex_s }
%struct.__pthread_mutex_s = type { i32, i32, i32, i32, i32, i16, i16, %struct.__pthread_internal_list }
%struct.__pthread_internal_list = type { ptr, ptr }
%struct.dt_lua_state_t = type { i32 }
%struct.dt_sys_resources_t = type { i64, i64, ptr, ptr, i32 }
%struct.dt_backthumb_t = type { double, double, i32, i32, i32, i32 }
%struct.dt_gimp_t = type { i32, ptr, ptr, i32, i32 }
%struct.dt_iop_module_t = type { i32, ptr, ptr, ptr, ptr, ptr, ptr, ptr, ptr, ptr, ptr, ptr, ptr, ptr, ptr, ptr, ptr, ptr, ptr, ptr, ptr, ptr, ptr, ptr, ptr, ptr, ptr, ptr, ptr, ptr, ptr, ptr, ptr, ptr, ptr, ptr, ptr, ptr, ptr, ptr, ptr, ptr, ptr, ptr, ptr, ptr, ptr, ptr, ptr, ptr, ptr, ptr, ptr, ptr, ptr, ptr, ptr, [20 x i8], i32, i32, i32, i32, i32, i32, i32, [8 x i8], [4 x float], [4 x float], [4 x float], [4 x float], [4 x float], [4 x float], ptr, %struct.dt_dev_histogram_stats_t, [4 x i32], i32, i32, ptr, i32, i32, ptr, ptr, i32, ptr, %struct.dt_pthread_mutex_t, ptr, ptr, ptr, ptr, %struct.anon, ptr, ptr, ptr, ptr, ptr, ptr, ptr, i32, ptr, ptr, ptr, ptr, ptr, ptr, ptr, i32, ptr, i32, [128 x i8], i32, ptr, ptr, i32, [12 x i8] }
%struct.dt_dev_histogram_stats_t = type { i32, i64, i32, i32 }
%struct.anon = type { %struct.anon.0, %struct.anon.1 }
%struct.anon.0 = type { ptr, ptr }
%struct.anon.1 = type { ptr, i32 }
%struct.dt_gui_gtk_t = type { ptr, %struct.dt_gui_widgets_t, %struct.dt_gui_scrollbars_t, i32, ptr, i32, [39 x %struct._GdkRGBA], i32, i32, i32, i32, i32, double, double, double, double, ptr, double, double, double, double, i32, i32, [4096 x i8], i32, i32, i32, %struct.dt_pthread_mutex_t }
%struct.dt_gui_widgets_t = type { ptr, ptr, ptr, ptr, i32, i32, i32 }
%struct.dt_gui_scrollbars_t = type { ptr, ptr, i32 }
%struct.dt_develop_blend_params_t = type { i32, i32, i32, float, float, i32, i32, i32, float, i32, float, float, float, float, i32, [2 x i32], [64 x float], [16 x float], [20 x i8], i32, i32, i32 }

@darktable = external global %struct.darktable_t, align 8

; Function Attrs: nounwind uwtable
define internal i32 @_blendop_blend_order_clicked(ptr noundef %0, ptr noundef %1, ptr noundef %2) #0 {
  %4 = alloca i32, align 4
  %5 = alloca ptr, align 8
  %6 = alloca ptr, align 8
  %7 = alloca ptr, align 8
  %8 = alloca ptr, align 8
  %9 = alloca i32, align 4
  store ptr %0, ptr %5, align 8, !tbaa !11
  store ptr %1, ptr %6, align 8, !tbaa !172
  store ptr %2, ptr %7, align 8, !tbaa !6
  %10 = load ptr, ptr getelementptr inbounds nuw (%struct.darktable_t, ptr @darktable, i32 0, i32 14), align 8, !tbaa !39
  %11 = getelementptr inbounds nuw %struct.dt_gui_gtk_t, ptr %10, i32 0, i32 5
  %12 = load i32, ptr %11, align 8, !tbaa !72
  %13 = icmp ne i32 %12, 0
  br i1 %13, label %14, label %15

14:                                               ; preds = %3
  store i32 1, ptr %4, align 4
  br label %48

15:                                               ; preds = %3
  call void @llvm.lifetime.start.p0(i64 8, ptr %8) #11
  %16 = load ptr, ptr %7, align 8, !tbaa !6
  %17 = getelementptr inbounds nuw %struct.dt_iop_module_t, ptr %16, i32 0, i32 86
  %18 = load ptr, ptr %17, align 8, !tbaa !77
  store ptr %18, ptr %8, align 8, !tbaa !78
  call void @llvm.lifetime.start.p0(i64 4, ptr %9) #11
  %19 = load ptr, ptr %8, align 8, !tbaa !78
  %20 = getelementptr inbounds nuw %struct.dt_develop_blend_params_t, ptr %19, i32 0, i32 2
  %21 = load i32, ptr %20, align 4, !tbaa !252
  %22 = and i32 %21, -2147483648
  %23 = icmp ne i32 %22, 0
  %24 = xor i1 %23, true
  %25 = zext i1 %24 to i32
  store i32 %25, ptr %9, align 4, !tbaa !80
  %26 = load i32, ptr %9, align 4, !tbaa !80
  %27 = icmp ne i32 %26, 0
  br i1 %27, label %33, label %28

28:                                               ; preds = %15
  %29 = load ptr, ptr %8, align 8, !tbaa !78
  %30 = getelementptr inbounds nuw %struct.dt_develop_blend_params_t, ptr %29, i32 0, i32 2
  %31 = load i32, ptr %30, align 4, !tbaa !252
  %32 = and i32 %31, 2147483647
  store i32 %32, ptr %30, align 4, !tbaa !252
  br label %38

33:                                               ; preds = %15
  %34 = load ptr, ptr %8, align 8, !tbaa !78
  %35 = getelementptr inbounds nuw %struct.dt_develop_blend_params_t, ptr %34, i32 0, i32 2
  %36 = load i32, ptr %35, align 4, !tbaa !252
  %37 = or i32 %36, -2147483648
  store i32 %37, ptr %35, align 4, !tbaa !252
  br label %38

38:                                               ; preds = %33, %28
  %39 = load ptr, ptr %5, align 8, !tbaa !11
  %40 = call i64 @gtk_toggle_button_get_type() #12
  %41 = call ptr @g_type_check_instance_cast(ptr noundef %39, i64 noundef %40)
  %42 = load i32, ptr %9, align 4, !tbaa !80
  call void @gtk_toggle_button_set_active(ptr noundef %41, i32 noundef %42)
  %43 = load ptr, ptr getelementptr inbounds nuw (%struct.darktable_t, ptr @darktable, i32 0, i32 9), align 8, !tbaa !132
  %44 = load ptr, ptr %7, align 8, !tbaa !6
  call void @dt_dev_add_history_item(ptr noundef %43, ptr noundef %44, i32 noundef 1)
  %45 = load ptr, ptr %5, align 8, !tbaa !11
  %46 = call i64 @gtk_widget_get_type() #12
  %47 = call ptr @g_type_check_instance_cast(ptr noundef %45, i64 noundef %46)
  call void @dt_control_queue_redraw_widget(ptr noundef %47)
  store i32 1, ptr %4, align 4
  call void @llvm.lifetime.end.p0(i64 4, ptr %9) #11
  call void @llvm.lifetime.end.p0(i64 8, ptr %8) #11
  br label %48

48:                                               ; preds = %38, %14
  %49 = load i32, ptr %4, align 4
  ret i32 %49
}